; Function Attrs: mustprogress nounwind uwtable
define void @glslang_program_add_shader(ptr nocapture noundef readonly %0, ptr nocapture noundef readonly %1) local_unnamed_addr #0 {
  %3 = load ptr, ptr %0, align 8
  %4 = load ptr, ptr %1, align 8
  %5 = getelementptr inbounds i8, ptr %3, i64 16
  %6 = getelementptr inbounds i8, ptr %4, i64 16
  %7 = load i32, ptr %6, align 8
  %8 = zext i32 %7 to i64
  %9 = getelementptr inbounds [14 x %"class.std::__cxx11::list"], ptr %5, i64 0, i64 %8
  %10 = tail call noalias noundef nonnull dereferenceable(24) ptr @_Znwm(i64 noundef 24) #16
  %11 = getelementptr inbounds i8, ptr %10, i64 16
  store ptr %4, ptr %11, align 8
  tail call void @_ZNSt8__detail15_List_node_base7_M_hookEPS0_(ptr noundef nonnull align 8 dereferenceable(16) %10, ptr noundef nonnull %9) #15
  %12 = getelementptr inbounds i8, ptr %9, i64 16
  %13 = load i64, ptr %12, align 8
  %14 = add i64 %13, 1
  store i64 %14, ptr %12, align 8
  ret void
}